target datalayout = "e-m:e-p270:32:32-p271:32:32-p272:64:64-i64:64-i128:128-f80:128-n8:16:32:64-S128"
target triple = "x86_64-pc-linux-gnu"

%"class.Json::Value" = type { %"union.Json::Value::ValueHolder", i16, ptr, i64 }
%"union.Json::Value::ValueHolder" = type { i64 }

@_ZN4Json5ValueC1ERKS0_ = dso_local unnamed_addr alias void (ptr, ptr), ptr @_ZN4Json5ValueC2ERKS0_

; Function Attrs: mustprogress uwtable
define dso_local void @_ZNK4Json5Value3getEPKcS2_RKS0_(ptr dead_on_unwind noalias writable sret(%"class.Json::Value") align 8 %0, ptr noundef nonnull align 8 dereferenceable(32) %1, ptr noundef %2, ptr noundef %3, ptr noundef nonnull align 8 dereferenceable(32) %4) #1 align 2 {
  %6 = alloca ptr, align 8
  %7 = alloca ptr, align 8
  %8 = alloca ptr, align 8
  %9 = alloca ptr, align 8
  %10 = alloca ptr, align 8
  %11 = alloca ptr, align 8
  store ptr %0, ptr %6, align 8
  store ptr %1, ptr %7, align 8
  store ptr %2, ptr %8, align 8
  store ptr %3, ptr %9, align 8
  store ptr %4, ptr %10, align 8
  %12 = load ptr, ptr %7, align 8
  %13 = load ptr, ptr %8, align 8
  %14 = load ptr, ptr %9, align 8
  %15 = call noundef ptr @_ZNK4Json5Value4findEPKcS2_(ptr noundef nonnull align 8 dereferenceable(32) %12, ptr noundef %13, ptr noundef %14)
  store ptr %15, ptr %11, align 8
  %16 = load ptr, ptr %11, align 8
  %17 = icmp ne ptr %16, null
  br i1 %17, label %20, label %18

18:                                               ; preds = %5
  %19 = load ptr, ptr %10, align 8
  br label %22

20:                                               ; preds = %5
  %21 = load ptr, ptr %11, align 8
  br label %22

22:                                               ; preds = %20, %18
  %23 = phi ptr [ %19, %18 ], [ %21, %20 ]
  call void @_ZN4Json5ValueC1ERKS0_(ptr noundef nonnull align 8 dereferenceable(32) %0, ptr noundef nonnull align 8 dereferenceable(32) %23)
  ret void
}

; Function Attrs: mustprogress uwtable
define dso_local void @_ZNK4Json5Value3getEPKcRKS0_(ptr dead_on_unwind noalias writable sret(%"class.Json::Value") align 8 %0, ptr noundef nonnull align 8 dereferenceable(32) %1, ptr noundef %2, ptr noundef nonnull align 8 dereferenceable(32) %3) #1 align 2 {
  %5 = alloca ptr, align 8
  %6 = alloca ptr, align 8
  %7 = alloca ptr, align 8
  %8 = alloca ptr, align 8
  store ptr %0, ptr %5, align 8
  store ptr %1, ptr %6, align 8
  store ptr %2, ptr %7, align 8
  store ptr %3, ptr %8, align 8
  %9 = load ptr, ptr %6, align 8
  %10 = load ptr, ptr %7, align 8
  %11 = load ptr, ptr %7, align 8
  %12 = load ptr, ptr %7, align 8
  %13 = call i64 @strlen(ptr noundef %12) #21
  %14 = getelementptr inbounds i8, ptr %11, i64 %13
  %15 = load ptr, ptr %8, align 8
  call void @_ZNK4Json5Value3getEPKcS2_RKS0_(ptr dead_on_unwind writable sret(%"class.Json::Value") align 8 %0, ptr noundef nonnull align 8 dereferenceable(32) %9, ptr noundef %10, ptr noundef %14, ptr noundef nonnull align 8 dereferenceable(32) %15)
  ret void
}