; Function Attrs: mustprogress uwtable
define dso_local void @_ZNK4Json5Value3getEPKcRKS0_(ptr dead_on_unwind noalias nocapture writable sret(%"class.Json::Value") align 8 %0, ptr nocapture noundef nonnull readonly align 8 dereferenceable(32) %1, ptr noundef %2, ptr nocapture noundef nonnull readonly align 8 dereferenceable(32) %3) local_unnamed_addr #2 align 2 {
  %5 = tail call i64 @strlen(ptr noundef nonnull dereferenceable(1) %2) #44
  %6 = getelementptr inbounds i8, ptr %2, i64 %5
  %7 = tail call noundef ptr @_ZNK4Json5Value4findEPKcS2_(ptr noundef nonnull align 8 dereferenceable(32) %1, ptr noundef %2, ptr noundef %6), !noalias !216
  %.not.i = icmp eq ptr %7, null
  %8 = select i1 %.not.i, ptr %3, ptr %7
  tail call void @_ZN4Json5ValueC2ERKS0_(ptr noundef nonnull align 8 dereferenceable(32) %0, ptr noundef nonnull align 8 dereferenceable(32) %8)
  ret void
}